target datalayout = "e-m:e-p270:32:32-p271:32:32-p272:64:64-i64:64-i128:128-f80:128-n8:16:32:64-S128"
target triple = "x86_64-pc-linux-gnu"

%class.CrowdToolState = type <{ %struct.SampleToolState, ptr, ptr, ptr, [3 x float], i32, %struct.dtCrowdAgentDebugInfo, ptr, [128 x %"struct.CrowdToolState::AgentTrail"], %class.ValueHistory, %class.ValueHistory, %struct.CrowdToolParams, i8, [7 x i8] }>
%struct.SampleToolState = type { ptr }
%struct.dtCrowdAgentDebugInfo = type { i32, [3 x float], [3 x float], ptr }
%"struct.CrowdToolState::AgentTrail" = type { [192 x float], i32 }
%class.ValueHistory = type { [256 x float], i32 }
%struct.CrowdToolParams = type { i8, i8, i8, i8, i8, i8, i8, i8, i8, i8, i8, i8, i8, i8, i8, i8, i8, i8, float, i8, float }
%struct.dtObstacleAvoidanceParams = type { float, float, float, float, float, float, i8, i8, i8, i8 }
%class.dtCrowd = type { i32, ptr, ptr, ptr, %class.dtPathQueue, [8 x %struct.dtObstacleAvoidanceParams], ptr, ptr, ptr, i32, [3 x float], [16 x %class.dtQueryFilter], float, i32, ptr }
%class.dtPathQueue = type { [8 x %"struct.dtPathQueue::PathQuery"], i32, i32, i32, ptr }
%"struct.dtPathQueue::PathQuery" = type { i32, [3 x float], [3 x float], i32, i32, ptr, i32, i32, i32, ptr }
%class.dtQueryFilter = type { [64 x float], i16, i16 }
%class.CrowdTool = type <{ %struct.SampleTool, ptr, ptr, i32, [4 x i8] }>
%struct.SampleTool = type { ptr }

; Function Attrs: mustprogress nounwind uwtable
define linkonce_odr dso_local noundef zeroext i1 @_Z15dtStatusSucceedj(i32 noundef %0) #1 comdat {
  %2 = alloca i32, align 4
  store i32 %0, ptr %2, align 4
  %3 = load i32, ptr %2, align 4
  %4 = and i32 %3, 1073741824
  %5 = icmp ne i32 %4, 0
  ret i1 %5
}

; Function Attrs: mustprogress nounwind uwtable
define linkonce_odr dso_local noundef ptr @_ZNK7dtCrowd15getQueryExtentsEv(ptr noundef nonnull align 8 dereferenceable(5072) %0) #1 comdat align 2 {
  %2 = alloca ptr, align 8
  store ptr %0, ptr %2, align 8
  %3 = load ptr, ptr %2, align 8
  %4 = getelementptr inbounds %class.dtCrowd, ptr %3, i32 0, i32 10
  %5 = getelementptr inbounds [3 x float], ptr %4, i64 0, i64 0
  ret ptr %5
}

; Function Attrs: mustprogress nounwind uwtable
define dso_local void @_ZN14CrowdToolState12hilightAgentEi(ptr noundef nonnull align 8 dereferenceable(101001) %0, i32 noundef %1) #1 align 2 {
  %3 = alloca ptr, align 8
  %4 = alloca i32, align 4
  store ptr %0, ptr %3, align 8
  store i32 %1, ptr %4, align 4
  %5 = load ptr, ptr %3, align 8
  %6 = load i32, ptr %4, align 4
  %7 = getelementptr inbounds %class.CrowdToolState, ptr %5, i32 0, i32 6
  %8 = getelementptr inbounds %struct.dtCrowdAgentDebugInfo, ptr %7, i32 0, i32 0
  store i32 %6, ptr %8, align 8
  ret void
}

; Function Attrs: mustprogress uwtable
define dso_local void @_ZN9CrowdTool11handleClickEPKfS1_b(ptr noundef nonnull align 8 dereferenceable(28) %0, ptr noundef %1, ptr noundef %2, i1 noundef zeroext %3) unnamed_addr #0 align 2 {
  %5 = alloca ptr, align 8
  %6 = alloca ptr, align 8
  %7 = alloca ptr, align 8
  %8 = alloca i8, align 1
  %9 = alloca ptr, align 8
  %10 = alloca ptr, align 8
  %11 = alloca i32, align 4
  %12 = alloca i32, align 4
  %13 = alloca ptr, align 8
  %14 = alloca ptr, align 8
  %15 = alloca %class.dtQueryFilter, align 4
  %16 = alloca ptr, align 8
  %17 = alloca [3 x float], align 4
  %18 = alloca i32, align 4
  %19 = alloca i16, align 2
  store ptr %0, ptr %5, align 8
  store ptr %1, ptr %6, align 8
  store ptr %2, ptr %7, align 8
  %20 = zext i1 %3 to i8
  store i8 %20, ptr %8, align 1
  %21 = load ptr, ptr %5, align 8
  %22 = getelementptr inbounds %class.CrowdTool, ptr %21, i32 0, i32 1
  %23 = load ptr, ptr %22, align 8
  %24 = icmp ne ptr %23, null
  br i1 %24, label %26, label %25

25:                                               ; preds = %4
  br label %151

26:                                               ; preds = %4
  %27 = getelementptr inbounds %class.CrowdTool, ptr %21, i32 0, i32 2
  %28 = load ptr, ptr %27, align 8
  %29 = icmp ne ptr %28, null
  br i1 %29, label %31, label %30

30:                                               ; preds = %26
  br label %151

31:                                               ; preds = %26
  %32 = getelementptr inbounds %class.CrowdTool, ptr %21, i32 0, i32 1
  %33 = load ptr, ptr %32, align 8
  %34 = load ptr, ptr %33, align 8
  %35 = getelementptr inbounds ptr, ptr %34, i64 14
  %36 = load ptr, ptr %35, align 8
  %37 = call noundef ptr %36(ptr noundef nonnull align 8 dereferenceable(200) %33)
  store ptr %37, ptr %9, align 8
  %38 = load ptr, ptr %9, align 8
  %39 = icmp ne ptr %38, null
  br i1 %39, label %41, label %40

40:                                               ; preds = %31
  br label %151

41:                                               ; preds = %31
  %42 = getelementptr inbounds %class.CrowdTool, ptr %21, i32 0, i32 1
  %43 = load ptr, ptr %42, align 8
  %44 = load ptr, ptr %43, align 8
  %45 = getelementptr inbounds ptr, ptr %44, i64 17
  %46 = load ptr, ptr %45, align 8
  %47 = call noundef ptr %46(ptr noundef nonnull align 8 dereferenceable(200) %43)
  store ptr %47, ptr %10, align 8
  %48 = load ptr, ptr %10, align 8
  %49 = icmp ne ptr %48, null
  br i1 %49, label %51, label %50

50:                                               ; preds = %41
  br label %151

51:                                               ; preds = %41
  %52 = getelementptr inbounds %class.CrowdTool, ptr %21, i32 0, i32 3
  %53 = load i32, ptr %52, align 8
  %54 = icmp eq i32 %53, 0
  br i1 %54, label %55, label %76

55:                                               ; preds = %51
  %56 = load i8, ptr %8, align 1
  %57 = trunc i8 %56 to i1
  br i1 %57, label %58, label %71

58:                                               ; preds = %55
  %59 = getelementptr inbounds %class.CrowdTool, ptr %21, i32 0, i32 2
  %60 = load ptr, ptr %59, align 8
  %61 = load ptr, ptr %6, align 8
  %62 = load ptr, ptr %7, align 8
  %63 = call noundef i32 @_ZN14CrowdToolState13hitTestAgentsEPKfS1_(ptr noundef nonnull align 8 dereferenceable(101001) %60, ptr noundef %61, ptr noundef %62)
  store i32 %63, ptr %11, align 4
  %64 = load i32, ptr %11, align 4
  %65 = icmp ne i32 %64, -1
  br i1 %65, label %66, label %70

66:                                               ; preds = %58
  %67 = getelementptr inbounds %class.CrowdTool, ptr %21, i32 0, i32 2
  %68 = load ptr, ptr %67, align 8
  %69 = load i32, ptr %11, align 4
  call void @_ZN14CrowdToolState11removeAgentEi(ptr noundef nonnull align 8 dereferenceable(101001) %68, i32 noundef %69)
  br label %70

70:                                               ; preds = %66, %58
  br label %75

71:                                               ; preds = %55
  %72 = getelementptr inbounds %class.CrowdTool, ptr %21, i32 0, i32 2
  %73 = load ptr, ptr %72, align 8
  %74 = load ptr, ptr %7, align 8
  call void @_ZN14CrowdToolState8addAgentEPKf(ptr noundef nonnull align 8 dereferenceable(101001) %73, ptr noundef %74)
  br label %75

75:                                               ; preds = %71, %70
  br label %151

76:                                               ; preds = %51
  %77 = getelementptr inbounds %class.CrowdTool, ptr %21, i32 0, i32 3
  %78 = load i32, ptr %77, align 8
  %79 = icmp eq i32 %78, 1
  br i1 %79, label %80, label %86

80:                                               ; preds = %76
  %81 = getelementptr inbounds %class.CrowdTool, ptr %21, i32 0, i32 2
  %82 = load ptr, ptr %81, align 8
  %83 = load ptr, ptr %7, align 8
  %84 = load i8, ptr %8, align 1
  %85 = trunc i8 %84 to i1
  call void @_ZN14CrowdToolState13setMoveTargetEPKfb(ptr noundef nonnull align 8 dereferenceable(101001) %82, ptr noundef %83, i1 noundef zeroext %85)
  br label %150

86:                                               ; preds = %76
  %87 = getelementptr inbounds %class.CrowdTool, ptr %21, i32 0, i32 3
  %88 = load i32, ptr %87, align 8
  %89 = icmp eq i32 %88, 2
  br i1 %89, label %90, label %99

90:                                               ; preds = %86
  %91 = getelementptr inbounds %class.CrowdTool, ptr %21, i32 0, i32 2
  %92 = load ptr, ptr %91, align 8
  %93 = load ptr, ptr %6, align 8
  %94 = load ptr, ptr %7, align 8
  %95 = call noundef i32 @_ZN14CrowdToolState13hitTestAgentsEPKfS1_(ptr noundef nonnull align 8 dereferenceable(101001) %92, ptr noundef %93, ptr noundef %94)
  store i32 %95, ptr %12, align 4
  %96 = getelementptr inbounds %class.CrowdTool, ptr %21, i32 0, i32 2
  %97 = load ptr, ptr %96, align 8
  %98 = load i32, ptr %12, align 4
  call void @_ZN14CrowdToolState12hilightAgentEi(ptr noundef nonnull align 8 dereferenceable(101001) %97, i32 noundef %98)
  br label %149

99:                                               ; preds = %86
  %100 = getelementptr inbounds %class.CrowdTool, ptr %21, i32 0, i32 3
  %101 = load i32, ptr %100, align 8
  %102 = icmp eq i32 %101, 3
  br i1 %102, label %103, label %148

103:                                              ; preds = %99
  %104 = getelementptr inbounds %class.CrowdTool, ptr %21, i32 0, i32 1
  %105 = load ptr, ptr %104, align 8
  %106 = load ptr, ptr %105, align 8
  %107 = getelementptr inbounds ptr, ptr %106, i64 15
  %108 = load ptr, ptr %107, align 8
  %109 = call noundef ptr %108(ptr noundef nonnull align 8 dereferenceable(200) %105)
  store ptr %109, ptr %13, align 8
  %110 = getelementptr inbounds %class.CrowdTool, ptr %21, i32 0, i32 1
  %111 = load ptr, ptr %110, align 8
  %112 = load ptr, ptr %111, align 8
  %113 = getelementptr inbounds ptr, ptr %112, i64 16
  %114 = load ptr, ptr %113, align 8
  %115 = call noundef ptr %114(ptr noundef nonnull align 8 dereferenceable(200) %111)
  store ptr %115, ptr %14, align 8
  %116 = load ptr, ptr %13, align 8
  %117 = icmp ne ptr %116, null
  br i1 %117, label %118, label %147

118:                                              ; preds = %103
  %119 = load ptr, ptr %14, align 8
  %120 = icmp ne ptr %119, null
  br i1 %120, label %121, label %147

121:                                              ; preds = %118
  call void @_ZN13dtQueryFilterC1Ev(ptr noundef nonnull align 4 dereferenceable(260) %15)
  %122 = load ptr, ptr %10, align 8
  %123 = call noundef ptr @_ZNK7dtCrowd15getQueryExtentsEv(ptr noundef nonnull align 8 dereferenceable(5072) %122)
  store ptr %123, ptr %16, align 8
  %124 = load ptr, ptr %14, align 8
  %125 = load ptr, ptr %7, align 8
  %126 = load ptr, ptr %16, align 8
  %127 = getelementptr inbounds [3 x float], ptr %17, i64 0, i64 0
  %128 = call noundef i32 @_ZNK14dtNavMeshQuery15findNearestPolyEPKfS1_PK13dtQueryFilterPjPf(ptr noundef nonnull align 8 dereferenceable(104) %124, ptr noundef %125, ptr noundef %126, ptr noundef %15, ptr noundef %18, ptr noundef %127)
  %129 = load i32, ptr %18, align 4
  %130 = icmp ne i32 %129, 0
  br i1 %130, label %131, label %146

131:                                              ; preds = %121
  store i16 0, ptr %19, align 2
  %132 = load ptr, ptr %13, align 8
  %133 = load i32, ptr %18, align 4
  %134 = call noundef i32 @_ZNK9dtNavMesh12getPolyFlagsEjPt(ptr noundef nonnull align 8 dereferenceable(100) %132, i32 noundef %133, ptr noundef %19)
  %135 = call noundef zeroext i1 @_Z15dtStatusSucceedj(i32 noundef %134)
  br i1 %135, label %136, label %145

136:                                              ; preds = %131
  %137 = load i16, ptr %19, align 2
  %138 = zext i16 %137 to i32
  %139 = xor i32 %138, 16
  %140 = trunc i32 %139 to i16
  store i16 %140, ptr %19, align 2
  %141 = load ptr, ptr %13, align 8
  %142 = load i32, ptr %18, align 4
  %143 = load i16, ptr %19, align 2
  %144 = call noundef i32 @_ZN9dtNavMesh12setPolyFlagsEjt(ptr noundef nonnull align 8 dereferenceable(100) %141, i32 noundef %142, i16 noundef zeroext %143)
  br label %145

145:                                              ; preds = %136, %131
  br label %146

146:                                              ; preds = %145, %121
  br label %147

147:                                              ; preds = %146, %118, %103
  br label %148

148:                                              ; preds = %147, %99
  br label %149

149:                                              ; preds = %148, %90
  br label %150

150:                                              ; preds = %149, %80
  br label %151

151:                                              ; preds = %150, %75, %50, %40, %30, %25
  ret void
}