; Function Attrs: mustprogress uwtable
define dso_local void @_ZN9CrowdTool11handleClickEPKfS1_b(ptr nocapture noundef nonnull readonly align 8 dereferenceable(28) %0, ptr nocapture noundef readonly %1, ptr noundef %2, i1 noundef zeroext %3) unnamed_addr #0 align 2 {
  %5 = alloca %class.dtQueryFilter, align 4
  %6 = alloca [3 x float], align 4
  %7 = alloca i32, align 4
  %8 = alloca i16, align 2
  %9 = getelementptr inbounds i8, ptr %0, i64 8
  %10 = load ptr, ptr %9, align 8
  %.not = icmp eq ptr %10, null
  br i1 %.not, label %67, label %11

11:                                               ; preds = %4
  %12 = getelementptr inbounds i8, ptr %0, i64 16
  %13 = load ptr, ptr %12, align 8
  %.not27 = icmp eq ptr %13, null
  br i1 %.not27, label %67, label %14

14:                                               ; preds = %11
  %15 = load ptr, ptr %10, align 8
  %16 = getelementptr inbounds i8, ptr %15, i64 112
  %17 = load ptr, ptr %16, align 8
  %18 = tail call noundef ptr %17(ptr noundef nonnull align 8 dereferenceable(200) %10)
  %.not28 = icmp eq ptr %18, null
  br i1 %.not28, label %67, label %19

19:                                               ; preds = %14
  %20 = load ptr, ptr %9, align 8
  %21 = load ptr, ptr %20, align 8
  %22 = getelementptr inbounds i8, ptr %21, i64 136
  %23 = load ptr, ptr %22, align 8
  %24 = tail call noundef ptr %23(ptr noundef nonnull align 8 dereferenceable(200) %20)
  %.not29 = icmp eq ptr %24, null
  br i1 %.not29, label %67, label %25

25:                                               ; preds = %19
  %26 = getelementptr inbounds i8, ptr %0, i64 24
  %27 = load i32, ptr %26, align 8
  switch i32 %27, label %67 [
    i32 0, label %28
    i32 1, label %35
    i32 2, label %37
    i32 3, label %42
  ]

28:                                               ; preds = %25
  %29 = load ptr, ptr %12, align 8
  br i1 %3, label %30, label %34

30:                                               ; preds = %28
  %31 = tail call noundef i32 @_ZN14CrowdToolState13hitTestAgentsEPKfS1_(ptr noundef nonnull align 8 dereferenceable(101001) %29, ptr noundef %1, ptr noundef %2)
  %.not31 = icmp eq i32 %31, -1
  br i1 %.not31, label %67, label %32

32:                                               ; preds = %30
  %33 = load ptr, ptr %12, align 8
  tail call void @_ZN14CrowdToolState11removeAgentEi(ptr noundef nonnull align 8 dereferenceable(101001) %33, i32 noundef %31)
  br label %67

34:                                               ; preds = %28
  tail call void @_ZN14CrowdToolState8addAgentEPKf(ptr noundef nonnull align 8 dereferenceable(101001) %29, ptr noundef %2)
  br label %67

35:                                               ; preds = %25
  %36 = load ptr, ptr %12, align 8
  tail call void @_ZN14CrowdToolState13setMoveTargetEPKfb(ptr noundef nonnull align 8 dereferenceable(101001) %36, ptr noundef %2, i1 noundef zeroext %3)
  br label %67

37:                                               ; preds = %25
  %38 = load ptr, ptr %12, align 8
  %39 = tail call noundef i32 @_ZN14CrowdToolState13hitTestAgentsEPKfS1_(ptr noundef nonnull align 8 dereferenceable(101001) %38, ptr noundef %1, ptr noundef %2)
  %40 = load ptr, ptr %12, align 8
  %41 = getelementptr inbounds i8, ptr %40, i64 48
  store i32 %39, ptr %41, align 8
  br label %67

42:                                               ; preds = %25
  %43 = load ptr, ptr %9, align 8
  %44 = load ptr, ptr %43, align 8
  %45 = getelementptr inbounds i8, ptr %44, i64 120
  %46 = load ptr, ptr %45, align 8
  %47 = tail call noundef ptr %46(ptr noundef nonnull align 8 dereferenceable(200) %43)
  %48 = load ptr, ptr %9, align 8
  %49 = load ptr, ptr %48, align 8
  %50 = getelementptr inbounds i8, ptr %49, i64 128
  %51 = load ptr, ptr %50, align 8
  %52 = tail call noundef ptr %51(ptr noundef nonnull align 8 dereferenceable(200) %48)
  %53 = icmp ne ptr %47, null
  %54 = icmp ne ptr %52, null
  %or.cond = and i1 %53, %54
  br i1 %or.cond, label %55, label %67

55:                                               ; preds = %42
  call void @_ZN13dtQueryFilterC1Ev(ptr noundef nonnull align 4 dereferenceable(260) %5)
  %56 = getelementptr inbounds i8, ptr %24, i64 884
  %57 = call noundef i32 @_ZNK14dtNavMeshQuery15findNearestPolyEPKfS1_PK13dtQueryFilterPjPf(ptr noundef nonnull align 8 dereferenceable(104) %52, ptr noundef %2, ptr noundef nonnull %56, ptr noundef nonnull %5, ptr noundef nonnull %7, ptr noundef nonnull %6)
  %58 = load i32, ptr %7, align 4
  %.not30 = icmp eq i32 %58, 0
  br i1 %.not30, label %67, label %59

59:                                               ; preds = %55
  store i16 0, ptr %8, align 2
  %60 = call noundef i32 @_ZNK9dtNavMesh12getPolyFlagsEjPt(ptr noundef nonnull align 8 dereferenceable(100) %47, i32 noundef %58, ptr noundef nonnull %8)
  %61 = and i32 %60, 1073741824
  %.not32 = icmp eq i32 %61, 0
  br i1 %.not32, label %67, label %62

62:                                               ; preds = %59
  %63 = load i16, ptr %8, align 2
  %64 = xor i16 %63, 16
  store i16 %64, ptr %8, align 2
  %65 = load i32, ptr %7, align 4
  %66 = call noundef i32 @_ZN9dtNavMesh12setPolyFlagsEjt(ptr noundef nonnull align 8 dereferenceable(100) %47, i32 noundef %65, i16 noundef zeroext %64)
  br label %67

67:                                               ; preds = %25, %35, %55, %62, %59, %42, %37, %34, %32, %30, %19, %14, %11, %4
  ret void
}